; Function Attrs: nounwind uwtable
define void @_ZTv0_n24_N25FilterImgPatchParamPluginD0Ev(ptr noundef %0) unnamed_addr #13 align 2 {
  %2 = load ptr, ptr %0, align 8
  %3 = getelementptr inbounds i8, ptr %2, i64 -24
  %4 = load i64, ptr %3, align 8
  %5 = getelementptr inbounds i8, ptr %0, i64 %4
  tail call void @_ZN25FilterImgPatchParamPluginD2Ev(ptr noundef nonnull align 8 dereferenceable(88) %5, ptr noundef nonnull @_ZTT25FilterImgPatchParamPlugin) #27
  %6 = getelementptr inbounds i8, ptr %5, i64 88
  store ptr getelementptr inbounds ({ [7 x ptr] }, ptr @_ZTV13MeshLabPlugin, i64 0, i32 0, i64 2), ptr %6, align 8
  %7 = getelementptr inbounds i8, ptr %5, i64 104
  tail call void @_ZN9QFileInfoD1Ev(ptr noundef nonnull align 8 dereferenceable(8) %7) #27
  tail call void @_ZdlPv(ptr noundef nonnull %5) #26
  ret void
}